---
triple:          'arm64-apple-darwin'
binary-path:     receiver
relocations:
  - { offsetInCU: 0x31A4, offset: 0x31A4, size: 0x8, addend: 0x0, symName: __ZNSt3__124__put_character_sequenceB8ue170006IcNS_11char_traitsIcEEEERNS_13basic_ostreamIT_T0_EES7_PKS4_m, symObjAddr: 0x1844, symBinAddr: 0x100003FA4, symSize: 0x1F4 }
  - { offsetInCU: 0x8546, offset: 0x8546, size: 0x8, addend: 0x0, symName: __ZNSt3__1lsB8ue170006INS_11char_traitsIcEEEERNS_13basic_ostreamIcT_EES6_PKc, symObjAddr: 0xF44, symBinAddr: 0x1000036A4, symSize: 0x48 }
  - { offsetInCU: 0x858C, offset: 0x858C, size: 0x8, addend: 0x0, symName: __ZNSt3__14endlB8ue170006IcNS_11char_traitsIcEEEERNS_13basic_ostreamIT_T0_EES7_, symObjAddr: 0xFB8, symBinAddr: 0x100003718, symSize: 0x58 }
  - { offsetInCU: 0x85CC, offset: 0x85CC, size: 0x8, addend: 0x0, symName: __ZNSt3__1eqB8ue170006ERKNS_19__hash_map_iteratorINS_15__hash_iteratorIPNS_11__hash_nodeINS_17__hash_value_typeIibEEPvEEEEEESB_, symObjAddr: 0x1068, symBinAddr: 0x1000037C8, symSize: 0x30 }
  - { offsetInCU: 0x8630, offset: 0x8630, size: 0x8, addend: 0x0, symName: __ZNSt3__116__pad_and_outputB8ue170006IcNS_11char_traitsIcEEEENS_19ostreambuf_iteratorIT_T0_EES6_PKS4_S8_S8_RNS_8ios_baseES4_, symObjAddr: 0x1A9C, symBinAddr: 0x1000041FC, symSize: 0x248 }
  - { offsetInCU: 0x86FF, offset: 0x86FF, size: 0x8, addend: 0x0, symName: __ZNSt3__112__to_addressB8ue170006IKcEEPT_S3_, symObjAddr: 0x1FE0, symBinAddr: 0x100004740, symSize: 0x14 }
  - { offsetInCU: 0x8734, offset: 0x8734, size: 0x8, addend: 0x0, symName: __ZNSt3__130__libcpp_is_constant_evaluatedB8ue170006Ev, symObjAddr: 0x210C, symBinAddr: 0x10000486C, symSize: 0xC }
  - { offsetInCU: 0x8784, offset: 0x8784, size: 0x8, addend: 0x0, symName: __ZNSt3__19use_facetB8ue170006INS_5ctypeIcEEEERKT_RKNS_6localeE, symObjAddr: 0x22BC, symBinAddr: 0x100004A1C, symSize: 0x2C }
  - { offsetInCU: 0x8C51, offset: 0x8C51, size: 0x8, addend: 0x0, symName: __ZNSt3__118__constexpr_strlenB8ue170006EPKc, symObjAddr: 0x2320, symBinAddr: 0x100004A80, symSize: 0x24 }
  - { offsetInCU: 0x8C7D, offset: 0x8C7D, size: 0x8, addend: 0x0, symName: __ZNSt3__119__libcpp_deallocateB8ue170006EPvmm, symObjAddr: 0x2C44, symBinAddr: 0x1000053A4, symSize: 0x30 }
  - { offsetInCU: 0x8CC5, offset: 0x8CC5, size: 0x8, addend: 0x0, symName: __ZNSt3__127__do_deallocate_handle_sizeB8ue170006IJEEEvPvmDpT_, symObjAddr: 0x2C74, symBinAddr: 0x1000053D4, symSize: 0x28 }
  - { offsetInCU: 0x8D03, offset: 0x8D03, size: 0x8, addend: 0x0, symName: __ZNSt3__124__libcpp_operator_deleteB8ue170006IJPvEEEvDpT_, symObjAddr: 0x2C9C, symBinAddr: 0x1000053FC, symSize: 0x24 }
  - { offsetInCU: 0x8D6B, offset: 0x8D6B, size: 0x8, addend: 0x0, symName: __ZNSt3__116__constrain_hashB8ue170006Emm, symObjAddr: 0x32B4, symBinAddr: 0x100005A14, symSize: 0x98 }
  - { offsetInCU: 0x8DA5, offset: 0x8DA5, size: 0x8, addend: 0x0, symName: __ZNSt3__1eqB8ue170006ERKNS_15__hash_iteratorIPNS_11__hash_nodeINS_17__hash_value_typeIibEEPvEEEES9_, symObjAddr: 0x3670, symBinAddr: 0x100005DD0, symSize: 0x30 }
  - { offsetInCU: 0x8DE2, offset: 0x8DE2, size: 0x8, addend: 0x0, symName: __ZNSt3__1neB8ue170006ERKNS_19__hash_map_iteratorINS_15__hash_iteratorIPNS_11__hash_nodeINS_17__hash_value_typeIibEEPvEEEEEESB_, symObjAddr: 0x36A0, symBinAddr: 0x100005E00, symSize: 0x30 }
  - { offsetInCU: 0x8E1F, offset: 0x8E1F, size: 0x8, addend: 0x0, symName: __ZNSt3__1neB8ue170006ERKNS_15__hash_iteratorIPNS_11__hash_nodeINS_17__hash_value_typeIibEEPvEEEES9_, symObjAddr: 0x39D0, symBinAddr: 0x100006130, symSize: 0x34 }
  - { offsetInCU: 0x8EE0, offset: 0x8EE0, size: 0x8, addend: 0x0, symName: __ZNSt3__117__libcpp_allocateB8ue170006Emm, symObjAddr: 0x3C88, symBinAddr: 0x1000063E8, symSize: 0x28 }
  - { offsetInCU: 0x8F1D, offset: 0x8F1D, size: 0x8, addend: 0x0, symName: __ZNSt3__121__libcpp_operator_newB8ue170006IJmEEEPvDpT_, symObjAddr: 0x3CC8, symBinAddr: 0x100006428, symSize: 0x24 }
  - { offsetInCU: 0x8F56, offset: 0x8F56, size: 0x8, addend: 0x0, symName: __ZNSt3__13maxB8ue170006ImEERKT_S3_S3_, symObjAddr: 0x4448, symBinAddr: 0x100006BA8, symSize: 0x2C }
  - { offsetInCU: 0x8F99, offset: 0x8F99, size: 0x8, addend: 0x0, symName: __ZNSt3__116__is_hash_power2B8ue170006Em, symObjAddr: 0x4474, symBinAddr: 0x100006BD4, symSize: 0x50 }
  - { offsetInCU: 0x8FC5, offset: 0x8FC5, size: 0x8, addend: 0x0, symName: __ZNSt3__116__next_hash_pow2B8ue170006Em, symObjAddr: 0x4968, symBinAddr: 0x1000070C8, symSize: 0x6C }
  - { offsetInCU: 0x8FF1, offset: 0x8FF1, size: 0x8, addend: 0x0, symName: __ZNSt3__112__libcpp_clzB8ue170006Em, symObjAddr: 0x4B58, symBinAddr: 0x1000072B8, symSize: 0x1C }
  - { offsetInCU: 0x901D, offset: 0x901D, size: 0x8, addend: 0x0, symName: __ZNSt3__13maxB8ue170006ImNS_6__lessIvvEEEERKT_S5_S5_T0_, symObjAddr: 0x4B74, symBinAddr: 0x1000072D4, symSize: 0x54 }
  - { offsetInCU: 0x90DF, offset: 0x90DF, size: 0x8, addend: 0x0, symName: __ZSt28__throw_bad_array_new_lengthB8ue170006v, symObjAddr: 0x3C54, symBinAddr: 0x1000063B4, symSize: 0x34 }
  - { offsetInCU: 0xBC35, offset: 0xBC35, size: 0x8, addend: 0x0, symName: __Z17calculateChecksumRK6Packet, symObjAddr: 0x0, symBinAddr: 0x100002760, symSize: 0xE0 }
  - { offsetInCU: 0xBC8F, offset: 0xBC8F, size: 0x8, addend: 0x0, symName: __Z6encodeR6Packet, symObjAddr: 0xE0, symBinAddr: 0x100002840, symSize: 0xAC }
  - { offsetInCU: 0xBCB8, offset: 0xBCB8, size: 0x8, addend: 0x0, symName: __ZL12_OSSwapInt16t, symObjAddr: 0x18C, symBinAddr: 0x1000028EC, symSize: 0x24 }
  - { offsetInCU: 0xBCE5, offset: 0xBCE5, size: 0x8, addend: 0x0, symName: __Z6decodeR6Packet, symObjAddr: 0x1B0, symBinAddr: 0x100002910, symSize: 0xAC }
  - { offsetInCU: 0xBD0E, offset: 0xBD0E, size: 0x8, addend: 0x0, symName: __Z11receiveFileiR11sockaddr_in, symObjAddr: 0x25C, symBinAddr: 0x1000029BC, symSize: 0xB40 }
  - { offsetInCU: 0xBF9D, offset: 0xBF9D, size: 0x8, addend: 0x0, symName: __ZNSt3__114basic_ofstreamIcNS_11char_traitsIcEEEC1EPKcj, symObjAddr: 0xD9C, symBinAddr: 0x1000034FC, symSize: 0x17C }
  - { offsetInCU: 0xBFE7, offset: 0xBFE7, size: 0x8, addend: 0x0, symName: __ZNKSt3__114basic_ofstreamIcNS_11char_traitsIcEEE7is_openEv, symObjAddr: 0xF18, symBinAddr: 0x100003678, symSize: 0x2C }
  - { offsetInCU: 0xC00F, offset: 0xC00F, size: 0x8, addend: 0x0, symName: __ZNSt3__113basic_ostreamIcNS_11char_traitsIcEEElsB8ue170006EPFRS3_S4_E, symObjAddr: 0xF8C, symBinAddr: 0x1000036EC, symSize: 0x2C }
  - { offsetInCU: 0xC0D4, offset: 0xC0D4, size: 0x8, addend: 0x0, symName: __ZN6PacketC1Ev, symObjAddr: 0x1010, symBinAddr: 0x100003770, symSize: 0x2C }
  - { offsetInCU: 0xC100, offset: 0xC100, size: 0x8, addend: 0x0, symName: __ZNSt3__113unordered_mapIibNS_4hashIiEENS_8equal_toIiEENS_9allocatorINS_4pairIKibEEEEEC1B8ue170006Ev, symObjAddr: 0x103C, symBinAddr: 0x10000379C, symSize: 0x2C }
  - { offsetInCU: 0xC12A, offset: 0xC12A, size: 0x8, addend: 0x0, symName: __ZNSt3__113unordered_mapIibNS_4hashIiEENS_8equal_toIiEENS_9allocatorINS_4pairIKibEEEEE4findB8ue170006ERS7_, symObjAddr: 0x1098, symBinAddr: 0x1000037F8, symSize: 0x40 }
  - { offsetInCU: 0xC15F, offset: 0xC15F, size: 0x8, addend: 0x0, symName: __ZNSt3__113unordered_mapIibNS_4hashIiEENS_8equal_toIiEENS_9allocatorINS_4pairIKibEEEEE3endB8ue170006Ev, symObjAddr: 0x10D8, symBinAddr: 0x100003838, symSize: 0x38 }
  - { offsetInCU: 0xC185, offset: 0xC185, size: 0x8, addend: 0x0, symName: __ZNSt3__113unordered_mapIibNS_4hashIiEENS_8equal_toIiEENS_9allocatorINS_4pairIKibEEEEEixERS7_, symObjAddr: 0x1110, symBinAddr: 0x100003870, symSize: 0x128 }
  - { offsetInCU: 0xC1EA, offset: 0xC1EA, size: 0x8, addend: 0x0, symName: __ZNSt3__114basic_ofstreamIcNS_11char_traitsIcEEE5closeEv, symObjAddr: 0x1238, symBinAddr: 0x100003998, symSize: 0x58 }
  - { offsetInCU: 0xC212, offset: 0xC212, size: 0x8, addend: 0x0, symName: __ZNSt3__113unordered_mapIibNS_4hashIiEENS_8equal_toIiEENS_9allocatorINS_4pairIKibEEEEED1B8ue170006Ev, symObjAddr: 0x1290, symBinAddr: 0x1000039F0, symSize: 0x2C }
  - { offsetInCU: 0xC241, offset: 0xC241, size: 0x8, addend: 0x0, symName: __ZNSt3__114basic_ofstreamIcNS_11char_traitsIcEEED1Ev, symObjAddr: 0x12C8, symBinAddr: 0x100003A28, symSize: 0x70 }
  - { offsetInCU: 0xC26E, offset: 0xC26E, size: 0x8, addend: 0x0, symName: _main, symObjAddr: 0x1338, symBinAddr: 0x100003A98, symSize: 0x164 }
  - { offsetInCU: 0xC2E1, offset: 0xC2E1, size: 0x8, addend: 0x0, symName: __ZN6PacketC2Ev, symObjAddr: 0x149C, symBinAddr: 0x100003BFC, symSize: 0x30 }
  - { offsetInCU: 0xC30D, offset: 0xC30D, size: 0x8, addend: 0x0, symName: __ZNSt3__16chrono10time_pointINS0_12steady_clockENS0_8durationIxNS_5ratioILl1ELl1000000000EEEEEEC1B8ue170006Ev, symObjAddr: 0x14CC, symBinAddr: 0x100003C2C, symSize: 0x2C }
  - { offsetInCU: 0xC337, offset: 0xC337, size: 0x8, addend: 0x0, symName: __ZNSt3__16chrono10time_pointINS0_12steady_clockENS0_8durationIxNS_5ratioILl1ELl1000000000EEEEEEC2B8ue170006Ev, symObjAddr: 0x14F8, symBinAddr: 0x100003C58, symSize: 0x34 }
  - { offsetInCU: 0xC361, offset: 0xC361, size: 0x8, addend: 0x0, symName: __ZNSt3__16chrono8durationIxNS_5ratioILl1ELl1000000000EEEE4zeroB8ue170006Ev, symObjAddr: 0x152C, symBinAddr: 0x100003C8C, symSize: 0x50 }
  - { offsetInCU: 0xC375, offset: 0xC375, size: 0x8, addend: 0x0, symName: __ZNSt3__16chrono15duration_valuesIxE4zeroB8ue170006Ev, symObjAddr: 0x157C, symBinAddr: 0x100003CDC, symSize: 0x8 }
  - { offsetInCU: 0xC398, offset: 0xC398, size: 0x8, addend: 0x0, symName: __ZNSt3__16chrono8durationIxNS_5ratioILl1ELl1000000000EEEEC1B8ue170006IxEERKT_PNS_9enable_ifIXaasr14is_convertibleIS8_xEE5valueooL_ZNS_17integral_constantIbLb0EE5valueEEntsr23treat_as_floating_pointIS6_EE5valueEvE4typeE, symObjAddr: 0x1584, symBinAddr: 0x100003CE4, symSize: 0x3C }
  - { offsetInCU: 0xC3E5, offset: 0xC3E5, size: 0x8, addend: 0x0, symName: __ZNSt3__16chrono8durationIxNS_5ratioILl1ELl1000000000EEEEC2B8ue170006IxEERKT_PNS_9enable_ifIXaasr14is_convertibleIS8_xEE5valueooL_ZNS_17integral_constantIbLb0EE5valueEEntsr23treat_as_floating_pointIS6_EE5valueEvE4typeE, symObjAddr: 0x15C0, symBinAddr: 0x100003D20, symSize: 0x28 }
  - { offsetInCU: 0xC432, offset: 0xC432, size: 0x8, addend: 0x0, symName: __ZNSt3__114basic_ofstreamIcNS_11char_traitsIcEEED2Ev, symObjAddr: 0x15E8, symBinAddr: 0x100003D48, symSize: 0x9C }
  - { offsetInCU: 0xC46C, offset: 0xC46C, size: 0x8, addend: 0x0, symName: __ZTv0_n24_NSt3__114basic_ofstreamIcNS_11char_traitsIcEEED1Ev, symObjAddr: 0x1684, symBinAddr: 0x100003DE4, symSize: 0x28 }
  - { offsetInCU: 0xC483, offset: 0xC483, size: 0x8, addend: 0x0, symName: __ZNSt3__19basic_iosIcNS_11char_traitsIcEEEC2B8ue170006Ev, symObjAddr: 0x16AC, symBinAddr: 0x100003E0C, symSize: 0x44 }
  - { offsetInCU: 0xC4AD, offset: 0xC4AD, size: 0x8, addend: 0x0, symName: __ZNSt3__113basic_ostreamIcNS_11char_traitsIcEEEC2B8ue170006EPNS_15basic_streambufIcS2_EE, symObjAddr: 0x16F0, symBinAddr: 0x100003E50, symSize: 0x60 }
  - { offsetInCU: 0xC4F2, offset: 0xC4F2, size: 0x8, addend: 0x0, symName: __ZNSt3__19basic_iosIcNS_11char_traitsIcEEE8setstateB8ue170006Ej, symObjAddr: 0x1750, symBinAddr: 0x100003EB0, symSize: 0x2C }
  - { offsetInCU: 0xC527, offset: 0xC527, size: 0x8, addend: 0x0, symName: __ZNSt3__18ios_baseC2B8ue170006Ev, symObjAddr: 0x177C, symBinAddr: 0x100003EDC, symSize: 0x24 }
  - { offsetInCU: 0xC551, offset: 0xC551, size: 0x8, addend: 0x0, symName: __ZNSt3__19basic_iosIcNS_11char_traitsIcEEE4initB8ue170006EPNS_15basic_streambufIcS2_EE, symObjAddr: 0x17A0, symBinAddr: 0x100003F00, symSize: 0x44 }
  - { offsetInCU: 0xC588, offset: 0xC588, size: 0x8, addend: 0x0, symName: __ZNSt3__111char_traitsIcE3eofB8ue170006Ev, symObjAddr: 0x17E4, symBinAddr: 0x100003F44, symSize: 0x8 }
  - { offsetInCU: 0xC59C, offset: 0xC59C, size: 0x8, addend: 0x0, symName: __ZNSt3__18ios_base8setstateB8ue170006Ej, symObjAddr: 0x17EC, symBinAddr: 0x100003F4C, symSize: 0x34 }
  - { offsetInCU: 0xC5D3, offset: 0xC5D3, size: 0x8, addend: 0x0, symName: __ZNKSt3__113basic_filebufIcNS_11char_traitsIcEEE7is_openEv, symObjAddr: 0x1820, symBinAddr: 0x100003F80, symSize: 0x24 }
  - { offsetInCU: 0xC5FB, offset: 0xC5FB, size: 0x8, addend: 0x0, symName: __ZNSt3__111char_traitsIcE6lengthB8ue170006EPKc, symObjAddr: 0x1A38, symBinAddr: 0x100004198, symSize: 0x48 }
  - { offsetInCU: 0xC63C, offset: 0xC63C, size: 0x8, addend: 0x0, symName: __ZNKSt3__113basic_ostreamIcNS_11char_traitsIcEEE6sentrycvbB8ue170006Ev, symObjAddr: 0x1A80, symBinAddr: 0x1000041E0, symSize: 0x1C }
  - { offsetInCU: 0xC662, offset: 0xC662, size: 0x8, addend: 0x0, symName: __ZNSt3__119ostreambuf_iteratorIcNS_11char_traitsIcEEEC1B8ue170006ERNS_13basic_ostreamIcS2_EE, symObjAddr: 0x1CE4, symBinAddr: 0x100004444, symSize: 0x34 }
  - { offsetInCU: 0xC69A, offset: 0xC69A, size: 0x8, addend: 0x0, symName: __ZNKSt3__18ios_base5flagsB8ue170006Ev, symObjAddr: 0x1D18, symBinAddr: 0x100004478, symSize: 0x18 }
  - { offsetInCU: 0xC6C2, offset: 0xC6C2, size: 0x8, addend: 0x0, symName: __ZNKSt3__19basic_iosIcNS_11char_traitsIcEEE4fillB8ue170006Ev, symObjAddr: 0x1D30, symBinAddr: 0x100004490, symSize: 0x64 }
  - { offsetInCU: 0xC6EA, offset: 0xC6EA, size: 0x8, addend: 0x0, symName: __ZNKSt3__119ostreambuf_iteratorIcNS_11char_traitsIcEEE6failedB8ue170006Ev, symObjAddr: 0x1D94, symBinAddr: 0x1000044F4, symSize: 0x24 }
  - { offsetInCU: 0xC710, offset: 0xC710, size: 0x8, addend: 0x0, symName: __ZNKSt3__18ios_base5widthB8ue170006Ev, symObjAddr: 0x1DB8, symBinAddr: 0x100004518, symSize: 0x18 }
  - { offsetInCU: 0xC738, offset: 0xC738, size: 0x8, addend: 0x0, symName: __ZNSt3__115basic_streambufIcNS_11char_traitsIcEEE5sputnB8ue170006EPKcl, symObjAddr: 0x1DD0, symBinAddr: 0x100004530, symSize: 0x3C }
  - { offsetInCU: 0xC77A, offset: 0xC77A, size: 0x8, addend: 0x0, symName: __ZNSt3__112basic_stringIcNS_11char_traitsIcEENS_9allocatorIcEEEC1B8ue170006Emc, symObjAddr: 0x1E0C, symBinAddr: 0x10000456C, symSize: 0x3C }
  - { offsetInCU: 0xC7C2, offset: 0xC7C2, size: 0x8, addend: 0x0, symName: __ZNKSt3__112basic_stringIcNS_11char_traitsIcEENS_9allocatorIcEEE4dataB8ue170006Ev, symObjAddr: 0x1E48, symBinAddr: 0x1000045A8, symSize: 0x28 }
  - { offsetInCU: 0xC7E8, offset: 0xC7E8, size: 0x8, addend: 0x0, symName: __ZNSt3__18ios_base5widthB8ue170006El, symObjAddr: 0x1E70, symBinAddr: 0x1000045D0, symSize: 0x2C }
  - { offsetInCU: 0xC82E, offset: 0xC82E, size: 0x8, addend: 0x0, symName: __ZNSt3__112basic_stringIcNS_11char_traitsIcEENS_9allocatorIcEEEC2B8ue170006Emc, symObjAddr: 0x1E9C, symBinAddr: 0x1000045FC, symSize: 0x4C }
  - { offsetInCU: 0xC87B, offset: 0xC87B, size: 0x8, addend: 0x0, symName: __ZNSt3__117__compressed_pairINS_12basic_stringIcNS_11char_traitsIcEENS_9allocatorIcEEE5__repES5_EC1B8ue170006INS_18__default_init_tagESA_EEOT_OT0_, symObjAddr: 0x1EE8, symBinAddr: 0x100004648, symSize: 0x3C }
  - { offsetInCU: 0xC8D3, offset: 0xC8D3, size: 0x8, addend: 0x0, symName: __ZNSt3__117__compressed_pairINS_12basic_stringIcNS_11char_traitsIcEENS_9allocatorIcEEE5__repES5_EC2B8ue170006INS_18__default_init_tagESA_EEOT_OT0_, symObjAddr: 0x1F24, symBinAddr: 0x100004684, symSize: 0x3C }
  - { offsetInCU: 0xC92B, offset: 0xC92B, size: 0x8, addend: 0x0, symName: __ZNSt3__122__compressed_pair_elemINS_12basic_stringIcNS_11char_traitsIcEENS_9allocatorIcEEE5__repELi0ELb0EEC2B8ue170006ENS_18__default_init_tagE, symObjAddr: 0x1F60, symBinAddr: 0x1000046C0, symSize: 0x14 }
  - { offsetInCU: 0xC960, offset: 0xC960, size: 0x8, addend: 0x0, symName: __ZNSt3__122__compressed_pair_elemINS_9allocatorIcEELi1ELb1EEC2B8ue170006ENS_18__default_init_tagE, symObjAddr: 0x1F74, symBinAddr: 0x1000046D4, symSize: 0x2C }
  - { offsetInCU: 0xC995, offset: 0xC995, size: 0x8, addend: 0x0, symName: __ZNSt3__19allocatorIcEC2B8ue170006Ev, symObjAddr: 0x1FA0, symBinAddr: 0x100004700, symSize: 0x2C }
  - { offsetInCU: 0xC9BF, offset: 0xC9BF, size: 0x8, addend: 0x0, symName: __ZNSt3__116__non_trivial_ifILb1ENS_9allocatorIcEEEC2B8ue170006Ev, symObjAddr: 0x1FCC, symBinAddr: 0x10000472C, symSize: 0x14 }
  - { offsetInCU: 0xC9E9, offset: 0xC9E9, size: 0x8, addend: 0x0, symName: __ZNKSt3__112basic_stringIcNS_11char_traitsIcEENS_9allocatorIcEEE13__get_pointerB8ue170006Ev, symObjAddr: 0x1FF4, symBinAddr: 0x100004754, symSize: 0x54 }
  - { offsetInCU: 0xCA0F, offset: 0xCA0F, size: 0x8, addend: 0x0, symName: __ZNKSt3__112basic_stringIcNS_11char_traitsIcEENS_9allocatorIcEEE9__is_longB8ue170006Ev, symObjAddr: 0x2048, symBinAddr: 0x1000047A8, symSize: 0x74 }
  - { offsetInCU: 0xCA35, offset: 0xCA35, size: 0x8, addend: 0x0, symName: __ZNKSt3__112basic_stringIcNS_11char_traitsIcEENS_9allocatorIcEEE18__get_long_pointerB8ue170006Ev, symObjAddr: 0x20BC, symBinAddr: 0x10000481C, symSize: 0x28 }
  - { offsetInCU: 0xCA5B, offset: 0xCA5B, size: 0x8, addend: 0x0, symName: __ZNKSt3__112basic_stringIcNS_11char_traitsIcEENS_9allocatorIcEEE19__get_short_pointerB8ue170006Ev, symObjAddr: 0x20E4, symBinAddr: 0x100004844, symSize: 0x28 }
  - { offsetInCU: 0xCA81, offset: 0xCA81, size: 0x8, addend: 0x0, symName: __ZNKSt3__117__compressed_pairINS_12basic_stringIcNS_11char_traitsIcEENS_9allocatorIcEEE5__repES5_E5firstB8ue170006Ev, symObjAddr: 0x2118, symBinAddr: 0x100004878, symSize: 0x24 }
  - { offsetInCU: 0xCAA7, offset: 0xCAA7, size: 0x8, addend: 0x0, symName: __ZNKSt3__122__compressed_pair_elemINS_12basic_stringIcNS_11char_traitsIcEENS_9allocatorIcEEE5__repELi0ELb0EE5__getB8ue170006Ev, symObjAddr: 0x213C, symBinAddr: 0x10000489C, symSize: 0x14 }
  - { offsetInCU: 0xCACD, offset: 0xCACD, size: 0x8, addend: 0x0, symName: __ZNSt3__114pointer_traitsIPKcE10pointer_toB8ue170006ERS1_, symObjAddr: 0x2150, symBinAddr: 0x1000048B0, symSize: 0x14 }
  - { offsetInCU: 0xCAF0, offset: 0xCAF0, size: 0x8, addend: 0x0, symName: __ZNSt3__119ostreambuf_iteratorIcNS_11char_traitsIcEEEC2B8ue170006ERNS_13basic_ostreamIcS2_EE, symObjAddr: 0x2164, symBinAddr: 0x1000048C4, symSize: 0x68 }
  - { offsetInCU: 0xCB28, offset: 0xCB28, size: 0x8, addend: 0x0, symName: __ZNKSt3__19basic_iosIcNS_11char_traitsIcEEE5rdbufB8ue170006Ev, symObjAddr: 0x21CC, symBinAddr: 0x10000492C, symSize: 0x24 }
  - { offsetInCU: 0xCB50, offset: 0xCB50, size: 0x8, addend: 0x0, symName: __ZNKSt3__18ios_base5rdbufB8ue170006Ev, symObjAddr: 0x21F0, symBinAddr: 0x100004950, symSize: 0x18 }
  - { offsetInCU: 0xCB76, offset: 0xCB76, size: 0x8, addend: 0x0, symName: __ZNSt3__111char_traitsIcE11eq_int_typeB8ue170006Eii, symObjAddr: 0x2208, symBinAddr: 0x100004968, symSize: 0x28 }
  - { offsetInCU: 0xCBA9, offset: 0xCBA9, size: 0x8, addend: 0x0, symName: __ZNKSt3__19basic_iosIcNS_11char_traitsIcEEE5widenB8ue170006Ec, symObjAddr: 0x2230, symBinAddr: 0x100004990, symSize: 0x8C }
  - { offsetInCU: 0xCC17, offset: 0xCC17, size: 0x8, addend: 0x0, symName: __ZNKSt3__15ctypeIcE5widenB8ue170006Ec, symObjAddr: 0x22E8, symBinAddr: 0x100004A48, symSize: 0x38 }
  - { offsetInCU: 0xCC4C, offset: 0xCC4C, size: 0x8, addend: 0x0, symName: __ZNSt3__113unordered_mapIibNS_4hashIiEENS_8equal_toIiEENS_9allocatorINS_4pairIKibEEEEEC2B8ue170006Ev, symObjAddr: 0x2344, symBinAddr: 0x100004AA4, symSize: 0x2C }
  - { offsetInCU: 0xCC76, offset: 0xCC76, size: 0x8, addend: 0x0, symName: __ZNSt3__112__hash_tableINS_17__hash_value_typeIibEENS_22__unordered_map_hasherIiS2_NS_4hashIiEENS_8equal_toIiEELb1EEENS_21__unordered_map_equalIiS2_S7_S5_Lb1EEENS_9allocatorIS2_EEEC1Ev, symObjAddr: 0x2370, symBinAddr: 0x100004AD0, symSize: 0x2C }
  - { offsetInCU: 0xCCA2, offset: 0xCCA2, size: 0x8, addend: 0x0, symName: __ZNSt3__112__hash_tableINS_17__hash_value_typeIibEENS_22__unordered_map_hasherIiS2_NS_4hashIiEENS_8equal_toIiEELb1EEENS_21__unordered_map_equalIiS2_S7_S5_Lb1EEENS_9allocatorIS2_EEEC2Ev, symObjAddr: 0x239C, symBinAddr: 0x100004AFC, symSize: 0xA4 }
  - { offsetInCU: 0xCCCE, offset: 0xCCCE, size: 0x8, addend: 0x0, symName: __ZNSt3__110unique_ptrIA_PNS_16__hash_node_baseIPNS_11__hash_nodeINS_17__hash_value_typeIibEEPvEEEENS_25__bucket_list_deallocatorINS_9allocatorIS9_EEEEEC1B8ue170006ILb1EvEEv, symObjAddr: 0x2440, symBinAddr: 0x100004BA0, symSize: 0x2C }
  - { offsetInCU: 0xCD03, offset: 0xCD03, size: 0x8, addend: 0x0, symName: __ZNSt3__117__compressed_pairINS_16__hash_node_baseIPNS_11__hash_nodeINS_17__hash_value_typeIibEEPvEEEENS_9allocatorIS6_EEEC1B8ue170006ILb1EvEEv, symObjAddr: 0x246C, symBinAddr: 0x100004BCC, symSize: 0x2C }
  - { offsetInCU: 0xCD3D, offset: 0xCD3D, size: 0x8, addend: 0x0, symName: __ZNSt3__117__compressed_pairImNS_22__unordered_map_hasherIiNS_17__hash_value_typeIibEENS_4hashIiEENS_8equal_toIiEELb1EEEEC1B8ue170006IiNS_18__default_init_tagEEEOT_OT0_, symObjAddr: 0x2498, symBinAddr: 0x100004BF8, symSize: 0x3C }
  - { offsetInCU: 0xCD9A, offset: 0xCD9A, size: 0x8, addend: 0x0, symName: __ZNSt3__117__compressed_pairIfNS_21__unordered_map_equalIiNS_17__hash_value_typeIibEENS_8equal_toIiEENS_4hashIiEELb1EEEEC1B8ue170006IfNS_18__default_init_tagEEEOT_OT0_, symObjAddr: 0x24D4, symBinAddr: 0x100004C34, symSize: 0x3C }
  - { offsetInCU: 0xCDF2, offset: 0xCDF2, size: 0x8, addend: 0x0, symName: __ZNSt3__110unique_ptrIA_PNS_16__hash_node_baseIPNS_11__hash_nodeINS_17__hash_value_typeIibEEPvEEEENS_25__bucket_list_deallocatorINS_9allocatorIS9_EEEEED1B8ue170006Ev, symObjAddr: 0x2510, symBinAddr: 0x100004C70, symSize: 0x2C }
  - { offsetInCU: 0xCE1C, offset: 0xCE1C, size: 0x8, addend: 0x0, symName: __ZNSt3__110unique_ptrIA_PNS_16__hash_node_baseIPNS_11__hash_nodeINS_17__hash_value_typeIibEEPvEEEENS_25__bucket_list_deallocatorINS_9allocatorIS9_EEEEEC2B8ue170006ILb1EvEEv, symObjAddr: 0x253C, symBinAddr: 0x100004C9C, symSize: 0x50 }
  - { offsetInCU: 0xCE56, offset: 0xCE56, size: 0x8, addend: 0x0, symName: __ZNSt3__117__compressed_pairIPPNS_16__hash_node_baseIPNS_11__hash_nodeINS_17__hash_value_typeIibEEPvEEEENS_25__bucket_list_deallocatorINS_9allocatorIS9_EEEEEC1B8ue170006INS_16__value_init_tagESH_EEOT_OT0_, symObjAddr: 0x258C, symBinAddr: 0x100004CEC, symSize: 0x3C }
  - { offsetInCU: 0xCEAE, offset: 0xCEAE, size: 0x8, addend: 0x0, symName: __ZNSt3__117__compressed_pairIPPNS_16__hash_node_baseIPNS_11__hash_nodeINS_17__hash_value_typeIibEEPvEEEENS_25__bucket_list_deallocatorINS_9allocatorIS9_EEEEEC2B8ue170006INS_16__value_init_tagESH_EEOT_OT0_, symObjAddr: 0x25C8, symBinAddr: 0x100004D28, symSize: 0x40 }
  - { offsetInCU: 0xCF06, offset: 0xCF06, size: 0x8, addend: 0x0, symName: __ZNSt3__122__compressed_pair_elemIPPNS_16__hash_node_baseIPNS_11__hash_nodeINS_17__hash_value_typeIibEEPvEEEELi0ELb0EEC2B8ue170006ENS_16__value_init_tagE, symObjAddr: 0x2608, symBinAddr: 0x100004D68, symSize: 0x18 }
  - { offsetInCU: 0xCF3B, offset: 0xCF3B, size: 0x8, addend: 0x0, symName: __ZNSt3__122__compressed_pair_elemINS_25__bucket_list_deallocatorINS_9allocatorIPNS_16__hash_node_baseIPNS_11__hash_nodeINS_17__hash_value_typeIibEEPvEEEEEEEELi1ELb0EEC2B8ue170006ENS_16__value_init_tagE, symObjAddr: 0x2620, symBinAddr: 0x100004D80, symSize: 0x2C }
  - { offsetInCU: 0xCF70, offset: 0xCF70, size: 0x8, addend: 0x0, symName: __ZNSt3__125__bucket_list_deallocatorINS_9allocatorIPNS_16__hash_node_baseIPNS_11__hash_nodeINS_17__hash_value_typeIibEEPvEEEEEEEC1B8ue170006Ev, symObjAddr: 0x264C, symBinAddr: 0x100004DAC, symSize: 0x2C }
  - { offsetInCU: 0xCF9A, offset: 0xCF9A, size: 0x8, addend: 0x0, symName: __ZNSt3__125__bucket_list_deallocatorINS_9allocatorIPNS_16__hash_node_baseIPNS_11__hash_nodeINS_17__hash_value_typeIibEEPvEEEEEEEC2B8ue170006Ev, symObjAddr: 0x2678, symBinAddr: 0x100004DD8, symSize: 0x38 }
  - { offsetInCU: 0xCFC4, offset: 0xCFC4, size: 0x8, addend: 0x0, symName: __ZNSt3__117__compressed_pairImNS_9allocatorIPNS_16__hash_node_baseIPNS_11__hash_nodeINS_17__hash_value_typeIibEEPvEEEEEEEC1B8ue170006IiNS_18__default_init_tagEEEOT_OT0_, symObjAddr: 0x26B0, symBinAddr: 0x100004E10, symSize: 0x3C }
  - { offsetInCU: 0xD01C, offset: 0xD01C, size: 0x8, addend: 0x0, symName: __ZNSt3__117__compressed_pairImNS_9allocatorIPNS_16__hash_node_baseIPNS_11__hash_nodeINS_17__hash_value_typeIibEEPvEEEEEEEC2B8ue170006IiNS_18__default_init_tagEEEOT_OT0_, symObjAddr: 0x26EC, symBinAddr: 0x100004E4C, symSize: 0x40 }
  - { offsetInCU: 0xD074, offset: 0xD074, size: 0x8, addend: 0x0, symName: __ZNSt3__122__compressed_pair_elemImLi0ELb0EEC2B8ue170006IivEEOT_, symObjAddr: 0x272C, symBinAddr: 0x100004E8C, symSize: 0x24 }
  - { offsetInCU: 0xD0B6, offset: 0xD0B6, size: 0x8, addend: 0x0, symName: __ZNSt3__122__compressed_pair_elemINS_9allocatorIPNS_16__hash_node_baseIPNS_11__hash_nodeINS_17__hash_value_typeIibEEPvEEEEEELi1ELb1EEC2B8ue170006ENS_18__default_init_tagE, symObjAddr: 0x2750, symBinAddr: 0x100004EB0, symSize: 0x2C }
  - { offsetInCU: 0xD0EB, offset: 0xD0EB, size: 0x8, addend: 0x0, symName: __ZNSt3__19allocatorIPNS_16__hash_node_baseIPNS_11__hash_nodeINS_17__hash_value_typeIibEEPvEEEEEC2B8ue170006Ev, symObjAddr: 0x277C, symBinAddr: 0x100004EDC, symSize: 0x2C }
  - { offsetInCU: 0xD115, offset: 0xD115, size: 0x8, addend: 0x0, symName: __ZNSt3__116__non_trivial_ifILb1ENS_9allocatorIPNS_16__hash_node_baseIPNS_11__hash_nodeINS_17__hash_value_typeIibEEPvEEEEEEEC2B8ue170006Ev, symObjAddr: 0x27A8, symBinAddr: 0x100004F08, symSize: 0x14 }
  - { offsetInCU: 0xD13F, offset: 0xD13F, size: 0x8, addend: 0x0, symName: __ZNSt3__117__compressed_pairINS_16__hash_node_baseIPNS_11__hash_nodeINS_17__hash_value_typeIibEEPvEEEENS_9allocatorIS6_EEEC2B8ue170006ILb1EvEEv, symObjAddr: 0x27BC, symBinAddr: 0x100004F1C, symSize: 0x34 }
  - { offsetInCU: 0xD174, offset: 0xD174, size: 0x8, addend: 0x0, symName: __ZNSt3__122__compressed_pair_elemINS_16__hash_node_baseIPNS_11__hash_nodeINS_17__hash_value_typeIibEEPvEEEELi0ELb0EEC2B8ue170006ENS_16__value_init_tagE, symObjAddr: 0x27F0, symBinAddr: 0x100004F50, symSize: 0x2C }
  - { offsetInCU: 0xD1A9, offset: 0xD1A9, size: 0x8, addend: 0x0, symName: __ZNSt3__122__compressed_pair_elemINS_9allocatorINS_11__hash_nodeINS_17__hash_value_typeIibEEPvEEEELi1ELb1EEC2B8ue170006ENS_16__value_init_tagE, symObjAddr: 0x281C, symBinAddr: 0x100004F7C, symSize: 0x2C }
  - { offsetInCU: 0xD1DE, offset: 0xD1DE, size: 0x8, addend: 0x0, symName: __ZNSt3__116__hash_node_baseIPNS_11__hash_nodeINS_17__hash_value_typeIibEEPvEEEC1B8ue170006Ev, symObjAddr: 0x2848, symBinAddr: 0x100004FA8, symSize: 0x2C }
  - { offsetInCU: 0xD208, offset: 0xD208, size: 0x8, addend: 0x0, symName: __ZNSt3__116__hash_node_baseIPNS_11__hash_nodeINS_17__hash_value_typeIibEEPvEEEC2B8ue170006Ev, symObjAddr: 0x2874, symBinAddr: 0x100004FD4, symSize: 0x18 }
  - { offsetInCU: 0xD232, offset: 0xD232, size: 0x8, addend: 0x0, symName: __ZNSt3__19allocatorINS_11__hash_nodeINS_17__hash_value_typeIibEEPvEEEC2B8ue170006Ev, symObjAddr: 0x288C, symBinAddr: 0x100004FEC, symSize: 0x2C }
  - { offsetInCU: 0xD25C, offset: 0xD25C, size: 0x8, addend: 0x0, symName: __ZNSt3__116__non_trivial_ifILb1ENS_9allocatorINS_11__hash_nodeINS_17__hash_value_typeIibEEPvEEEEEC2B8ue170006Ev, symObjAddr: 0x28B8, symBinAddr: 0x100005018, symSize: 0x14 }
  - { offsetInCU: 0xD286, offset: 0xD286, size: 0x8, addend: 0x0, symName: __ZNSt3__117__compressed_pairImNS_22__unordered_map_hasherIiNS_17__hash_value_typeIibEENS_4hashIiEENS_8equal_toIiEELb1EEEEC2B8ue170006IiNS_18__default_init_tagEEEOT_OT0_, symObjAddr: 0x28CC, symBinAddr: 0x10000502C, symSize: 0x40 }
  - { offsetInCU: 0xD2DE, offset: 0xD2DE, size: 0x8, addend: 0x0, symName: __ZNSt3__122__compressed_pair_elemINS_22__unordered_map_hasherIiNS_17__hash_value_typeIibEENS_4hashIiEENS_8equal_toIiEELb1EEELi1ELb1EEC2B8ue170006ENS_18__default_init_tagE, symObjAddr: 0x290C, symBinAddr: 0x10000506C, symSize: 0x2C }
  - { offsetInCU: 0xD313, offset: 0xD313, size: 0x8, addend: 0x0, symName: __ZNSt3__122__unordered_map_hasherIiNS_17__hash_value_typeIibEENS_4hashIiEENS_8equal_toIiEELb1EEC2B8ue170006Ev, symObjAddr: 0x2938, symBinAddr: 0x100005098, symSize: 0x14 }
  - { offsetInCU: 0xD33D, offset: 0xD33D, size: 0x8, addend: 0x0, symName: __ZNSt3__117__compressed_pairIfNS_21__unordered_map_equalIiNS_17__hash_value_typeIibEENS_8equal_toIiEENS_4hashIiEELb1EEEEC2B8ue170006IfNS_18__default_init_tagEEEOT_OT0_, symObjAddr: 0x294C, symBinAddr: 0x1000050AC, symSize: 0x40 }
  - { offsetInCU: 0xD395, offset: 0xD395, size: 0x8, addend: 0x0, symName: __ZNSt3__122__compressed_pair_elemIfLi0ELb0EEC2B8ue170006IfvEEOT_, symObjAddr: 0x298C, symBinAddr: 0x1000050EC, symSize: 0x24 }
  - { offsetInCU: 0xD3D7, offset: 0xD3D7, size: 0x8, addend: 0x0, symName: __ZNSt3__122__compressed_pair_elemINS_21__unordered_map_equalIiNS_17__hash_value_typeIibEENS_8equal_toIiEENS_4hashIiEELb1EEELi1ELb1EEC2B8ue170006ENS_18__default_init_tagE, symObjAddr: 0x29B0, symBinAddr: 0x100005110, symSize: 0x2C }
  - { offsetInCU: 0xD40C, offset: 0xD40C, size: 0x8, addend: 0x0, symName: __ZNSt3__121__unordered_map_equalIiNS_17__hash_value_typeIibEENS_8equal_toIiEENS_4hashIiEELb1EEC2B8ue170006Ev, symObjAddr: 0x29DC, symBinAddr: 0x10000513C, symSize: 0x14 }
  - { offsetInCU: 0xD436, offset: 0xD436, size: 0x8, addend: 0x0, symName: __ZNSt3__110unique_ptrIA_PNS_16__hash_node_baseIPNS_11__hash_nodeINS_17__hash_value_typeIibEEPvEEEENS_25__bucket_list_deallocatorINS_9allocatorIS9_EEEEED2B8ue170006Ev, symObjAddr: 0x29F0, symBinAddr: 0x100005150, symSize: 0x30 }
  - { offsetInCU: 0xD460, offset: 0xD460, size: 0x8, addend: 0x0, symName: __ZNSt3__110unique_ptrIA_PNS_16__hash_node_baseIPNS_11__hash_nodeINS_17__hash_value_typeIibEEPvEEEENS_25__bucket_list_deallocatorINS_9allocatorIS9_EEEEE5resetB8ue170006EDn, symObjAddr: 0x2A20, symBinAddr: 0x100005180, symSize: 0x6C }
  - { offsetInCU: 0xD4A1, offset: 0xD4A1, size: 0x8, addend: 0x0, symName: __ZNSt3__117__compressed_pairIPPNS_16__hash_node_baseIPNS_11__hash_nodeINS_17__hash_value_typeIibEEPvEEEENS_25__bucket_list_deallocatorINS_9allocatorIS9_EEEEE5firstB8ue170006Ev, symObjAddr: 0x2A8C, symBinAddr: 0x1000051EC, symSize: 0x24 }
  - { offsetInCU: 0xD4C7, offset: 0xD4C7, size: 0x8, addend: 0x0, symName: __ZNSt3__117__compressed_pairIPPNS_16__hash_node_baseIPNS_11__hash_nodeINS_17__hash_value_typeIibEEPvEEEENS_25__bucket_list_deallocatorINS_9allocatorIS9_EEEEE6secondB8ue170006Ev, symObjAddr: 0x2AB0, symBinAddr: 0x100005210, symSize: 0x28 }
  - { offsetInCU: 0xD4ED, offset: 0xD4ED, size: 0x8, addend: 0x0, symName: __ZNSt3__125__bucket_list_deallocatorINS_9allocatorIPNS_16__hash_node_baseIPNS_11__hash_nodeINS_17__hash_value_typeIibEEPvEEEEEEEclB8ue170006EPSA_, symObjAddr: 0x2AD8, symBinAddr: 0x100005238, symSize: 0x58 }
  - { offsetInCU: 0xD522, offset: 0xD522, size: 0x8, addend: 0x0, symName: __ZNSt3__122__compressed_pair_elemIPPNS_16__hash_node_baseIPNS_11__hash_nodeINS_17__hash_value_typeIibEEPvEEEELi0ELb0EE5__getB8ue170006Ev, symObjAddr: 0x2B30, symBinAddr: 0x100005290, symSize: 0x14 }
  - { offsetInCU: 0xD548, offset: 0xD548, size: 0x8, addend: 0x0, symName: __ZNSt3__122__compressed_pair_elemINS_25__bucket_list_deallocatorINS_9allocatorIPNS_16__hash_node_baseIPNS_11__hash_nodeINS_17__hash_value_typeIibEEPvEEEEEEEELi1ELb0EE5__getB8ue170006Ev, symObjAddr: 0x2B44, symBinAddr: 0x1000052A4, symSize: 0x14 }
  - { offsetInCU: 0xD56E, offset: 0xD56E, size: 0x8, addend: 0x0, symName: __ZNSt3__116allocator_traitsINS_9allocatorIPNS_16__hash_node_baseIPNS_11__hash_nodeINS_17__hash_value_typeIibEEPvEEEEEEE10deallocateB8ue170006ERSB_PSA_m, symObjAddr: 0x2B58, symBinAddr: 0x1000052B8, symSize: 0x34 }
  - { offsetInCU: 0xD5B0, offset: 0xD5B0, size: 0x8, addend: 0x0, symName: __ZNSt3__125__bucket_list_deallocatorINS_9allocatorIPNS_16__hash_node_baseIPNS_11__hash_nodeINS_17__hash_value_typeIibEEPvEEEEEEE7__allocB8ue170006Ev, symObjAddr: 0x2B8C, symBinAddr: 0x1000052EC, symSize: 0x24 }
  - { offsetInCU: 0xD5D6, offset: 0xD5D6, size: 0x8, addend: 0x0, symName: __ZNSt3__125__bucket_list_deallocatorINS_9allocatorIPNS_16__hash_node_baseIPNS_11__hash_nodeINS_17__hash_value_typeIibEEPvEEEEEEE4sizeB8ue170006Ev, symObjAddr: 0x2BB0, symBinAddr: 0x100005310, symSize: 0x24 }
  - { offsetInCU: 0xD5FC, offset: 0xD5FC, size: 0x8, addend: 0x0, symName: __ZNSt3__19allocatorIPNS_16__hash_node_baseIPNS_11__hash_nodeINS_17__hash_value_typeIibEEPvEEEEE10deallocateB8ue170006EPS9_m, symObjAddr: 0x2BD4, symBinAddr: 0x100005334, symSize: 0x70 }
  - { offsetInCU: 0xD63E, offset: 0xD63E, size: 0x8, addend: 0x0, symName: __ZNSt3__117__compressed_pairImNS_9allocatorIPNS_16__hash_node_baseIPNS_11__hash_nodeINS_17__hash_value_typeIibEEPvEEEEEEE6secondB8ue170006Ev, symObjAddr: 0x2CC0, symBinAddr: 0x100005420, symSize: 0x24 }
  - { offsetInCU: 0xD664, offset: 0xD664, size: 0x8, addend: 0x0, symName: __ZNSt3__122__compressed_pair_elemINS_9allocatorIPNS_16__hash_node_baseIPNS_11__hash_nodeINS_17__hash_value_typeIibEEPvEEEEEELi1ELb1EE5__getB8ue170006Ev, symObjAddr: 0x2CE4, symBinAddr: 0x100005444, symSize: 0x14 }
  - { offsetInCU: 0xD68A, offset: 0xD68A, size: 0x8, addend: 0x0, symName: __ZNSt3__117__compressed_pairImNS_9allocatorIPNS_16__hash_node_baseIPNS_11__hash_nodeINS_17__hash_value_typeIibEEPvEEEEEEE5firstB8ue170006Ev, symObjAddr: 0x2CF8, symBinAddr: 0x100005458, symSize: 0x24 }
  - { offsetInCU: 0xD6B0, offset: 0xD6B0, size: 0x8, addend: 0x0, symName: __ZNSt3__122__compressed_pair_elemImLi0ELb0EE5__getB8ue170006Ev, symObjAddr: 0x2D1C, symBinAddr: 0x10000547C, symSize: 0x14 }
  - { offsetInCU: 0xD6D6, offset: 0xD6D6, size: 0x8, addend: 0x0, symName: __ZNSt3__113unordered_mapIibNS_4hashIiEENS_8equal_toIiEENS_9allocatorINS_4pairIKibEEEEED2B8ue170006Ev, symObjAddr: 0x2D30, symBinAddr: 0x100005490, symSize: 0x2C }
  - { offsetInCU: 0xD700, offset: 0xD700, size: 0x8, addend: 0x0, symName: __ZNSt3__112__hash_tableINS_17__hash_value_typeIibEENS_22__unordered_map_hasherIiS2_NS_4hashIiEENS_8equal_toIiEELb1EEENS_21__unordered_map_equalIiS2_S7_S5_Lb1EEENS_9allocatorIS2_EEED1Ev, symObjAddr: 0x2D5C, symBinAddr: 0x1000054BC, symSize: 0x2C }
  - { offsetInCU: 0xD72C, offset: 0xD72C, size: 0x8, addend: 0x0, symName: __ZNSt3__112__hash_tableINS_17__hash_value_typeIibEENS_22__unordered_map_hasherIiS2_NS_4hashIiEENS_8equal_toIiEELb1EEENS_21__unordered_map_equalIiS2_S7_S5_Lb1EEENS_9allocatorIS2_EEED2Ev, symObjAddr: 0x2D88, symBinAddr: 0x1000054E8, symSize: 0x48 }
  - { offsetInCU: 0xD758, offset: 0xD758, size: 0x8, addend: 0x0, symName: __ZNSt3__112__hash_tableINS_17__hash_value_typeIibEENS_22__unordered_map_hasherIiS2_NS_4hashIiEENS_8equal_toIiEELb1EEENS_21__unordered_map_equalIiS2_S7_S5_Lb1EEENS_9allocatorIS2_EEE17__deallocate_nodeEPNS_16__hash_node_baseIPNS_11__hash_nodeIS2_PvEEEE, symObjAddr: 0x2DD0, symBinAddr: 0x100005530, symSize: 0xBC }
  - { offsetInCU: 0xD7C2, offset: 0xD7C2, size: 0x8, addend: 0x0, symName: __ZNSt3__117__compressed_pairINS_16__hash_node_baseIPNS_11__hash_nodeINS_17__hash_value_typeIibEEPvEEEENS_9allocatorIS6_EEE5firstB8ue170006Ev, symObjAddr: 0x2E8C, symBinAddr: 0x1000055EC, symSize: 0x24 }
  - { offsetInCU: 0xD7E8, offset: 0xD7E8, size: 0x8, addend: 0x0, symName: __ZNSt3__112__hash_tableINS_17__hash_value_typeIibEENS_22__unordered_map_hasherIiS2_NS_4hashIiEENS_8equal_toIiEELb1EEENS_21__unordered_map_equalIiS2_S7_S5_Lb1EEENS_9allocatorIS2_EEE12__node_allocB8ue170006Ev, symObjAddr: 0x2EB0, symBinAddr: 0x100005610, symSize: 0x28 }
  - { offsetInCU: 0xD80E, offset: 0xD80E, size: 0x8, addend: 0x0, symName: __ZNSt3__116__hash_node_baseIPNS_11__hash_nodeINS_17__hash_value_typeIibEEPvEEE8__upcastB8ue170006Ev, symObjAddr: 0x2ED8, symBinAddr: 0x100005638, symSize: 0x24 }
  - { offsetInCU: 0xD834, offset: 0xD834, size: 0x8, addend: 0x0, symName: __ZNSt3__116allocator_traitsINS_9allocatorINS_11__hash_nodeINS_17__hash_value_typeIibEEPvEEEEE7destroyB8ue170006INS_4pairIKibEEvvEEvRS7_PT_, symObjAddr: 0x2EFC, symBinAddr: 0x10000565C, symSize: 0x14 }
  - { offsetInCU: 0xD86F, offset: 0xD86F, size: 0x8, addend: 0x0, symName: __ZNSt3__122__hash_key_value_typesINS_17__hash_value_typeIibEEE9__get_ptrB8ue170006ERS2_, symObjAddr: 0x2F10, symBinAddr: 0x100005670, symSize: 0x24 }
  - { offsetInCU: 0xD892, offset: 0xD892, size: 0x8, addend: 0x0, symName: __ZNSt3__116allocator_traitsINS_9allocatorINS_11__hash_nodeINS_17__hash_value_typeIibEEPvEEEEE10deallocateB8ue170006ERS7_PS6_m, symObjAddr: 0x2F34, symBinAddr: 0x100005694, symSize: 0x34 }
  - { offsetInCU: 0xD8D4, offset: 0xD8D4, size: 0x8, addend: 0x0, symName: __ZNSt3__117__compressed_pairINS_16__hash_node_baseIPNS_11__hash_nodeINS_17__hash_value_typeIibEEPvEEEENS_9allocatorIS6_EEE6secondB8ue170006Ev, symObjAddr: 0x2F68, symBinAddr: 0x1000056C8, symSize: 0x24 }
  - { offsetInCU: 0xD8FA, offset: 0xD8FA, size: 0x8, addend: 0x0, symName: __ZNSt3__122__compressed_pair_elemINS_9allocatorINS_11__hash_nodeINS_17__hash_value_typeIibEEPvEEEELi1ELb1EE5__getB8ue170006Ev, symObjAddr: 0x2F8C, symBinAddr: 0x1000056EC, symSize: 0x14 }
  - { offsetInCU: 0xD920, offset: 0xD920, size: 0x8, addend: 0x0, symName: __ZNSt3__114pointer_traitsIPNS_16__hash_node_baseIPNS_11__hash_nodeINS_17__hash_value_typeIibEEPvEEEEE10pointer_toB8ue170006ERS8_, symObjAddr: 0x2FA0, symBinAddr: 0x100005700, symSize: 0x14 }
  - { offsetInCU: 0xD943, offset: 0xD943, size: 0x8, addend: 0x0, symName: __ZNSt3__117__hash_value_typeIibE11__get_valueB8ue170006Ev, symObjAddr: 0x2FB4, symBinAddr: 0x100005714, symSize: 0x14 }
  - { offsetInCU: 0xD969, offset: 0xD969, size: 0x8, addend: 0x0, symName: __ZNSt3__19allocatorINS_11__hash_nodeINS_17__hash_value_typeIibEEPvEEE10deallocateB8ue170006EPS5_m, symObjAddr: 0x2FC8, symBinAddr: 0x100005728, symSize: 0x74 }
  - { offsetInCU: 0xD9AB, offset: 0xD9AB, size: 0x8, addend: 0x0, symName: __ZNSt3__122__compressed_pair_elemINS_16__hash_node_baseIPNS_11__hash_nodeINS_17__hash_value_typeIibEEPvEEEELi0ELb0EE5__getB8ue170006Ev, symObjAddr: 0x303C, symBinAddr: 0x10000579C, symSize: 0x14 }
  - { offsetInCU: 0xD9D1, offset: 0xD9D1, size: 0x8, addend: 0x0, symName: __ZNSt3__112__hash_tableINS_17__hash_value_typeIibEENS_22__unordered_map_hasherIiS2_NS_4hashIiEENS_8equal_toIiEELb1EEENS_21__unordered_map_equalIiS2_S7_S5_Lb1EEENS_9allocatorIS2_EEE4findIiEENS_15__hash_iteratorIPNS_11__hash_nodeIS2_PvEEEERKT_, symObjAddr: 0x3050, symBinAddr: 0x1000057B0, symSize: 0x1B0 }
  - { offsetInCU: 0xDA5C, offset: 0xDA5C, size: 0x8, addend: 0x0, symName: __ZNSt3__119__hash_map_iteratorINS_15__hash_iteratorIPNS_11__hash_nodeINS_17__hash_value_typeIibEEPvEEEEEC1B8ue170006ES8_, symObjAddr: 0x3200, symBinAddr: 0x100005960, symSize: 0x34 }
  - { offsetInCU: 0xDA95, offset: 0xDA95, size: 0x8, addend: 0x0, symName: __ZNSt3__112__hash_tableINS_17__hash_value_typeIibEENS_22__unordered_map_hasherIiS2_NS_4hashIiEENS_8equal_toIiEELb1EEENS_21__unordered_map_equalIiS2_S7_S5_Lb1EEENS_9allocatorIS2_EEE13hash_functionB8ue170006Ev, symObjAddr: 0x3234, symBinAddr: 0x100005994, symSize: 0x28 }
  - { offsetInCU: 0xDABB, offset: 0xDABB, size: 0x8, addend: 0x0, symName: __ZNKSt3__122__unordered_map_hasherIiNS_17__hash_value_typeIibEENS_4hashIiEENS_8equal_toIiEELb1EEclB8ue170006ERKi, symObjAddr: 0x325C, symBinAddr: 0x1000059BC, symSize: 0x30 }
  - { offsetInCU: 0xDAF0, offset: 0xDAF0, size: 0x8, addend: 0x0, symName: __ZNKSt3__112__hash_tableINS_17__hash_value_typeIibEENS_22__unordered_map_hasherIiS2_NS_4hashIiEENS_8equal_toIiEELb1EEENS_21__unordered_map_equalIiS2_S7_S5_Lb1EEENS_9allocatorIS2_EEE12bucket_countB8ue170006Ev, symObjAddr: 0x328C, symBinAddr: 0x1000059EC, symSize: 0x28 }
  - { offsetInCU: 0xDB16, offset: 0xDB16, size: 0x8, addend: 0x0, symName: __ZNKSt3__110unique_ptrIA_PNS_16__hash_node_baseIPNS_11__hash_nodeINS_17__hash_value_typeIibEEPvEEEENS_25__bucket_list_deallocatorINS_9allocatorIS9_EEEEEixB8ue170006Em, symObjAddr: 0x334C, symBinAddr: 0x100005AAC, symSize: 0x34 }
  - { offsetInCU: 0xDB4B, offset: 0xDB4B, size: 0x8, addend: 0x0, symName: __ZNKSt3__116__hash_node_baseIPNS_11__hash_nodeINS_17__hash_value_typeIibEEPvEEE6__hashB8ue170006Ev, symObjAddr: 0x3380, symBinAddr: 0x100005AE0, symSize: 0x18 }
  - { offsetInCU: 0xDB71, offset: 0xDB71, size: 0x8, addend: 0x0, symName: __ZNSt3__112__hash_tableINS_17__hash_value_typeIibEENS_22__unordered_map_hasherIiS2_NS_4hashIiEENS_8equal_toIiEELb1EEENS_21__unordered_map_equalIiS2_S7_S5_Lb1EEENS_9allocatorIS2_EEE6key_eqB8ue170006Ev, symObjAddr: 0x3398, symBinAddr: 0x100005AF8, symSize: 0x28 }
  - { offsetInCU: 0xDB97, offset: 0xDB97, size: 0x8, addend: 0x0, symName: __ZNKSt3__121__unordered_map_equalIiNS_17__hash_value_typeIibEENS_8equal_toIiEENS_4hashIiEELb1EEclB8ue170006ERKS2_RKi, symObjAddr: 0x33C0, symBinAddr: 0x100005B20, symSize: 0x48 }
  - { offsetInCU: 0xDBDB, offset: 0xDBDB, size: 0x8, addend: 0x0, symName: __ZNSt3__115__hash_iteratorIPNS_11__hash_nodeINS_17__hash_value_typeIibEEPvEEEC1B8ue170006EPNS_16__hash_node_baseIS6_EE, symObjAddr: 0x3408, symBinAddr: 0x100005B68, symSize: 0x34 }
  - { offsetInCU: 0xDC14, offset: 0xDC14, size: 0x8, addend: 0x0, symName: __ZNSt3__112__hash_tableINS_17__hash_value_typeIibEENS_22__unordered_map_hasherIiS2_NS_4hashIiEENS_8equal_toIiEELb1EEENS_21__unordered_map_equalIiS2_S7_S5_Lb1EEENS_9allocatorIS2_EEE3endEv, symObjAddr: 0x343C, symBinAddr: 0x100005B9C, symSize: 0x2C }
  - { offsetInCU: 0xDC3C, offset: 0xDC3C, size: 0x8, addend: 0x0, symName: __ZNSt3__117__compressed_pairImNS_22__unordered_map_hasherIiNS_17__hash_value_typeIibEENS_4hashIiEENS_8equal_toIiEELb1EEEE6secondB8ue170006Ev, symObjAddr: 0x3468, symBinAddr: 0x100005BC8, symSize: 0x24 }
  - { offsetInCU: 0xDC62, offset: 0xDC62, size: 0x8, addend: 0x0, symName: __ZNSt3__122__compressed_pair_elemINS_22__unordered_map_hasherIiNS_17__hash_value_typeIibEENS_4hashIiEENS_8equal_toIiEELb1EEELi1ELb1EE5__getB8ue170006Ev, symObjAddr: 0x348C, symBinAddr: 0x100005BEC, symSize: 0x14 }
  - { offsetInCU: 0xDC88, offset: 0xDC88, size: 0x8, addend: 0x0, symName: __ZNKSt3__14hashIiEclB8ue170006Ei, symObjAddr: 0x34A0, symBinAddr: 0x100005C00, symSize: 0x18 }
  - { offsetInCU: 0xDCBD, offset: 0xDCBD, size: 0x8, addend: 0x0, symName: __ZNKSt3__110unique_ptrIA_PNS_16__hash_node_baseIPNS_11__hash_nodeINS_17__hash_value_typeIibEEPvEEEENS_25__bucket_list_deallocatorINS_9allocatorIS9_EEEEE11get_deleterB8ue170006Ev, symObjAddr: 0x34B8, symBinAddr: 0x100005C18, symSize: 0x24 }
  - { offsetInCU: 0xDCE3, offset: 0xDCE3, size: 0x8, addend: 0x0, symName: __ZNKSt3__125__bucket_list_deallocatorINS_9allocatorIPNS_16__hash_node_baseIPNS_11__hash_nodeINS_17__hash_value_typeIibEEPvEEEEEEE4sizeB8ue170006Ev, symObjAddr: 0x34DC, symBinAddr: 0x100005C3C, symSize: 0x28 }
  - { offsetInCU: 0xDD09, offset: 0xDD09, size: 0x8, addend: 0x0, symName: __ZNKSt3__117__compressed_pairIPPNS_16__hash_node_baseIPNS_11__hash_nodeINS_17__hash_value_typeIibEEPvEEEENS_25__bucket_list_deallocatorINS_9allocatorIS9_EEEEE6secondB8ue170006Ev, symObjAddr: 0x3504, symBinAddr: 0x100005C64, symSize: 0x28 }
  - { offsetInCU: 0xDD2F, offset: 0xDD2F, size: 0x8, addend: 0x0, symName: __ZNKSt3__122__compressed_pair_elemINS_25__bucket_list_deallocatorINS_9allocatorIPNS_16__hash_node_baseIPNS_11__hash_nodeINS_17__hash_value_typeIibEEPvEEEEEEEELi1ELb0EE5__getB8ue170006Ev, symObjAddr: 0x352C, symBinAddr: 0x100005C8C, symSize: 0x14 }
  - { offsetInCU: 0xDD55, offset: 0xDD55, size: 0x8, addend: 0x0, symName: __ZNKSt3__117__compressed_pairImNS_9allocatorIPNS_16__hash_node_baseIPNS_11__hash_nodeINS_17__hash_value_typeIibEEPvEEEEEEE5firstB8ue170006Ev, symObjAddr: 0x3540, symBinAddr: 0x100005CA0, symSize: 0x24 }
  - { offsetInCU: 0xDD7B, offset: 0xDD7B, size: 0x8, addend: 0x0, symName: __ZNKSt3__122__compressed_pair_elemImLi0ELb0EE5__getB8ue170006Ev, symObjAddr: 0x3564, symBinAddr: 0x100005CC4, symSize: 0x14 }
  - { offsetInCU: 0xDDA1, offset: 0xDDA1, size: 0x8, addend: 0x0, symName: __ZNKSt3__117__compressed_pairIPPNS_16__hash_node_baseIPNS_11__hash_nodeINS_17__hash_value_typeIibEEPvEEEENS_25__bucket_list_deallocatorINS_9allocatorIS9_EEEEE5firstB8ue170006Ev, symObjAddr: 0x3578, symBinAddr: 0x100005CD8, symSize: 0x24 }
  - { offsetInCU: 0xDDC7, offset: 0xDDC7, size: 0x8, addend: 0x0, symName: __ZNKSt3__122__compressed_pair_elemIPPNS_16__hash_node_baseIPNS_11__hash_nodeINS_17__hash_value_typeIibEEPvEEEELi0ELb0EE5__getB8ue170006Ev, symObjAddr: 0x359C, symBinAddr: 0x100005CFC, symSize: 0x14 }
  - { offsetInCU: 0xDDED, offset: 0xDDED, size: 0x8, addend: 0x0, symName: __ZNSt3__117__compressed_pairIfNS_21__unordered_map_equalIiNS_17__hash_value_typeIibEENS_8equal_toIiEENS_4hashIiEELb1EEEE6secondB8ue170006Ev, symObjAddr: 0x35B0, symBinAddr: 0x100005D10, symSize: 0x24 }
  - { offsetInCU: 0xDE13, offset: 0xDE13, size: 0x8, addend: 0x0, symName: __ZNSt3__122__compressed_pair_elemINS_21__unordered_map_equalIiNS_17__hash_value_typeIibEENS_8equal_toIiEENS_4hashIiEELb1EEELi1ELb1EE5__getB8ue170006Ev, symObjAddr: 0x35D4, symBinAddr: 0x100005D34, symSize: 0x14 }
  - { offsetInCU: 0xDE39, offset: 0xDE39, size: 0x8, addend: 0x0, symName: __ZNKSt3__18equal_toIiEclB8ue170006ERKiS3_, symObjAddr: 0x35E8, symBinAddr: 0x100005D48, symSize: 0x34 }
  - { offsetInCU: 0xDE7D, offset: 0xDE7D, size: 0x8, addend: 0x0, symName: __ZNKSt3__117__hash_value_typeIibE11__get_valueB8ue170006Ev, symObjAddr: 0x361C, symBinAddr: 0x100005D7C, symSize: 0x14 }
  - { offsetInCU: 0xDEA3, offset: 0xDEA3, size: 0x8, addend: 0x0, symName: __ZNSt3__115__hash_iteratorIPNS_11__hash_nodeINS_17__hash_value_typeIibEEPvEEEC2B8ue170006EPNS_16__hash_node_baseIS6_EE, symObjAddr: 0x3630, symBinAddr: 0x100005D90, symSize: 0x20 }
  - { offsetInCU: 0xDEDC, offset: 0xDEDC, size: 0x8, addend: 0x0, symName: __ZNSt3__119__hash_map_iteratorINS_15__hash_iteratorIPNS_11__hash_nodeINS_17__hash_value_typeIibEEPvEEEEEC2B8ue170006ES8_, symObjAddr: 0x3650, symBinAddr: 0x100005DB0, symSize: 0x20 }
  - { offsetInCU: 0xDF15, offset: 0xDF15, size: 0x8, addend: 0x0, symName: __ZNKSt3__119__hash_map_iteratorINS_15__hash_iteratorIPNS_11__hash_nodeINS_17__hash_value_typeIibEEPvEEEEEptB8ue170006Ev, symObjAddr: 0x36D0, symBinAddr: 0x100005E30, symSize: 0x2C }
  - { offsetInCU: 0xDF3B, offset: 0xDF3B, size: 0x8, addend: 0x0, symName: __ZNSt3__113unordered_mapIibNS_4hashIiEENS_8equal_toIiEENS_9allocatorINS_4pairIKibEEEEE25__construct_node_with_keyERS7_, symObjAddr: 0x36FC, symBinAddr: 0x100005E5C, symSize: 0x144 }
  - { offsetInCU: 0xDF91, offset: 0xDF91, size: 0x8, addend: 0x0, symName: __ZNSt3__112__hash_tableINS_17__hash_value_typeIibEENS_22__unordered_map_hasherIiS2_NS_4hashIiEENS_8equal_toIiEELb1EEENS_21__unordered_map_equalIiS2_S7_S5_Lb1EEENS_9allocatorIS2_EEE20__node_insert_uniqueEPNS_11__hash_nodeIS2_PvEE, symObjAddr: 0x3840, symBinAddr: 0x100005FA0, symSize: 0xC4 }
  - { offsetInCU: 0xDFE6, offset: 0xDFE6, size: 0x8, addend: 0x0, symName: __ZNKSt3__110unique_ptrINS_11__hash_nodeINS_17__hash_value_typeIibEEPvEENS_26__hash_map_node_destructorINS_9allocatorIS5_EEEEE3getB8ue170006Ev, symObjAddr: 0x3904, symBinAddr: 0x100006064, symSize: 0x28 }
  - { offsetInCU: 0xE00C, offset: 0xE00C, size: 0x8, addend: 0x0, symName: __ZNSt3__14pairINS_19__hash_map_iteratorINS_15__hash_iteratorIPNS_11__hash_nodeINS_17__hash_value_typeIibEEPvEEEEEEbEC1B8ue170006IS9_bEERKNS0_IT_T0_EE, symObjAddr: 0x392C, symBinAddr: 0x10000608C, symSize: 0x34 }
  - { offsetInCU: 0xE056, offset: 0xE056, size: 0x8, addend: 0x0, symName: __ZNSt3__110unique_ptrINS_11__hash_nodeINS_17__hash_value_typeIibEEPvEENS_26__hash_map_node_destructorINS_9allocatorIS5_EEEEE7releaseB8ue170006Ev, symObjAddr: 0x3960, symBinAddr: 0x1000060C0, symSize: 0x44 }
  - { offsetInCU: 0xE08B, offset: 0xE08B, size: 0x8, addend: 0x0, symName: __ZNSt3__110unique_ptrINS_11__hash_nodeINS_17__hash_value_typeIibEEPvEENS_26__hash_map_node_destructorINS_9allocatorIS5_EEEEED1B8ue170006Ev, symObjAddr: 0x39A4, symBinAddr: 0x100006104, symSize: 0x2C }
  - { offsetInCU: 0xE0B5, offset: 0xE0B5, size: 0x8, addend: 0x0, symName: __ZNSt3__114pointer_traitsIPNS_4pairIKibEEE10pointer_toB8ue170006ERS3_, symObjAddr: 0x3A04, symBinAddr: 0x100006164, symSize: 0x14 }
  - { offsetInCU: 0xE0D8, offset: 0xE0D8, size: 0x8, addend: 0x0, symName: __ZNKSt3__115__hash_iteratorIPNS_11__hash_nodeINS_17__hash_value_typeIibEEPvEEEptB8ue170006Ev, symObjAddr: 0x3A18, symBinAddr: 0x100006178, symSize: 0x30 }
  - { offsetInCU: 0xE0FE, offset: 0xE0FE, size: 0x8, addend: 0x0, symName: __ZNSt3__114pointer_traitsIPNS_17__hash_value_typeIibEEE10pointer_toB8ue170006ERS2_, symObjAddr: 0x3A48, symBinAddr: 0x1000061A8, symSize: 0x14 }
  - { offsetInCU: 0xE121, offset: 0xE121, size: 0x8, addend: 0x0, symName: __ZNSt3__116allocator_traitsINS_9allocatorINS_11__hash_nodeINS_17__hash_value_typeIibEEPvEEEEE8allocateB8ue170006ERS7_m, symObjAddr: 0x3A5C, symBinAddr: 0x1000061BC, symSize: 0x2C }
  - { offsetInCU: 0xE154, offset: 0xE154, size: 0x8, addend: 0x0, symName: __ZNSt3__126__hash_map_node_destructorINS_9allocatorINS_11__hash_nodeINS_17__hash_value_typeIibEEPvEEEEEC1B8ue170006ERS7_, symObjAddr: 0x3A88, symBinAddr: 0x1000061E8, symSize: 0x34 }
  - { offsetInCU: 0xE192, offset: 0xE192, size: 0x8, addend: 0x0, symName: __ZNSt3__110unique_ptrINS_11__hash_nodeINS_17__hash_value_typeIibEEPvEENS_26__hash_map_node_destructorINS_9allocatorIS5_EEEEEC1B8ue170006ILb1EvEEPS5_NS_16__dependent_typeINS_27__unique_ptr_deleter_sfinaeIS9_EEXT_EE20__good_rval_ref_typeE, symObjAddr: 0x3ABC, symBinAddr: 0x10000621C, symSize: 0x3C }
  - { offsetInCU: 0xE1E8, offset: 0xE1E8, size: 0x8, addend: 0x0, symName: __ZNSt3__116allocator_traitsINS_9allocatorINS_11__hash_nodeINS_17__hash_value_typeIibEEPvEEEEE9constructB8ue170006IKiJRSA_EvEEvRS7_PT_DpOT0_, symObjAddr: 0x3AF8, symBinAddr: 0x100006258, symSize: 0x34 }
  - { offsetInCU: 0xE23F, offset: 0xE23F, size: 0x8, addend: 0x0, symName: __ZNKSt3__110unique_ptrINS_11__hash_nodeINS_17__hash_value_typeIibEEPvEENS_26__hash_map_node_destructorINS_9allocatorIS5_EEEEEptB8ue170006Ev, symObjAddr: 0x3B2C, symBinAddr: 0x10000628C, symSize: 0x28 }
  - { offsetInCU: 0xE265, offset: 0xE265, size: 0x8, addend: 0x0, symName: __ZNSt3__110unique_ptrINS_11__hash_nodeINS_17__hash_value_typeIibEEPvEENS_26__hash_map_node_destructorINS_9allocatorIS5_EEEEE11get_deleterB8ue170006Ev, symObjAddr: 0x3B54, symBinAddr: 0x1000062B4, symSize: 0x24 }
  - { offsetInCU: 0xE290, offset: 0xE290, size: 0x8, addend: 0x0, symName: __ZNSt3__116allocator_traitsINS_9allocatorINS_11__hash_nodeINS_17__hash_value_typeIibEEPvEEEEE9constructB8ue170006IbJEvEEvRS7_PT_DpOT0_, symObjAddr: 0x3B78, symBinAddr: 0x1000062D8, symSize: 0x2C }
  - { offsetInCU: 0xE2D2, offset: 0xE2D2, size: 0x8, addend: 0x0, symName: __ZNSt3__19allocatorINS_11__hash_nodeINS_17__hash_value_typeIibEEPvEEE8allocateB8ue170006Em, symObjAddr: 0x3BA4, symBinAddr: 0x100006304, symSize: 0x8C }
  - { offsetInCU: 0xE310, offset: 0xE310, size: 0x8, addend: 0x0, symName: __ZNSt3__116allocator_traitsINS_9allocatorINS_11__hash_nodeINS_17__hash_value_typeIibEEPvEEEEE8max_sizeB8ue170006IS7_vEEmRKS7_, symObjAddr: 0x3C30, symBinAddr: 0x100006390, symSize: 0x24 }
  - { offsetInCU: 0xE33E, offset: 0xE33E, size: 0x8, addend: 0x0, symName: __ZNKSt3__19allocatorINS_11__hash_nodeINS_17__hash_value_typeIibEEPvEEE8max_sizeB8ue170006Ev, symObjAddr: 0x3CB0, symBinAddr: 0x100006410, symSize: 0x18 }
  - { offsetInCU: 0xE364, offset: 0xE364, size: 0x8, addend: 0x0, symName: __ZNSt3__126__hash_map_node_destructorINS_9allocatorINS_11__hash_nodeINS_17__hash_value_typeIibEEPvEEEEEC2B8ue170006ERS7_, symObjAddr: 0x3CEC, symBinAddr: 0x10000644C, symSize: 0x28 }
  - { offsetInCU: 0xE39D, offset: 0xE39D, size: 0x8, addend: 0x0, symName: __ZNSt3__110unique_ptrINS_11__hash_nodeINS_17__hash_value_typeIibEEPvEENS_26__hash_map_node_destructorINS_9allocatorIS5_EEEEEC2B8ue170006ILb1EvEEPS5_NS_16__dependent_typeINS_27__unique_ptr_deleter_sfinaeIS9_EEXT_EE20__good_rval_ref_typeE, symObjAddr: 0x3D14, symBinAddr: 0x100006474, symSize: 0x5C }
  - { offsetInCU: 0xE3EE, offset: 0xE3EE, size: 0x8, addend: 0x0, symName: __ZNSt3__117__compressed_pairIPNS_11__hash_nodeINS_17__hash_value_typeIibEEPvEENS_26__hash_map_node_destructorINS_9allocatorIS5_EEEEEC1B8ue170006IRS6_SA_EEOT_OT0_, symObjAddr: 0x3D70, symBinAddr: 0x1000064D0, symSize: 0x3C }
  - { offsetInCU: 0xE446, offset: 0xE446, size: 0x8, addend: 0x0, symName: __ZNSt3__117__compressed_pairIPNS_11__hash_nodeINS_17__hash_value_typeIibEEPvEENS_26__hash_map_node_destructorINS_9allocatorIS5_EEEEEC2B8ue170006IRS6_SA_EEOT_OT0_, symObjAddr: 0x3DAC, symBinAddr: 0x10000650C, symSize: 0x48 }
  - { offsetInCU: 0xE49E, offset: 0xE49E, size: 0x8, addend: 0x0, symName: __ZNSt3__122__compressed_pair_elemIPNS_11__hash_nodeINS_17__hash_value_typeIibEEPvEELi0ELb0EEC2B8ue170006IRS6_vEEOT_, symObjAddr: 0x3DF4, symBinAddr: 0x100006554, symSize: 0x24 }
  - { offsetInCU: 0xE4E0, offset: 0xE4E0, size: 0x8, addend: 0x0, symName: __ZNSt3__122__compressed_pair_elemINS_26__hash_map_node_destructorINS_9allocatorINS_11__hash_nodeINS_17__hash_value_typeIibEEPvEEEEEELi1ELb0EEC2B8ue170006IS9_vEEOT_, symObjAddr: 0x3E18, symBinAddr: 0x100006578, symSize: 0x24 }
  - { offsetInCU: 0xE522, offset: 0xE522, size: 0x8, addend: 0x0, symName: __ZNSt3__19allocatorINS_11__hash_nodeINS_17__hash_value_typeIibEEPvEEE9constructB8ue170006IKiJRS8_EEEvPT_DpOT0_, symObjAddr: 0x3E3C, symBinAddr: 0x10000659C, symSize: 0x28 }
  - { offsetInCU: 0xE578, offset: 0xE578, size: 0x8, addend: 0x0, symName: __ZNKSt3__117__compressed_pairIPNS_11__hash_nodeINS_17__hash_value_typeIibEEPvEENS_26__hash_map_node_destructorINS_9allocatorIS5_EEEEE5firstB8ue170006Ev, symObjAddr: 0x3E64, symBinAddr: 0x1000065C4, symSize: 0x24 }
  - { offsetInCU: 0xE59E, offset: 0xE59E, size: 0x8, addend: 0x0, symName: __ZNKSt3__122__compressed_pair_elemIPNS_11__hash_nodeINS_17__hash_value_typeIibEEPvEELi0ELb0EE5__getB8ue170006Ev, symObjAddr: 0x3E88, symBinAddr: 0x1000065E8, symSize: 0x14 }
  - { offsetInCU: 0xE5C4, offset: 0xE5C4, size: 0x8, addend: 0x0, symName: __ZNSt3__117__compressed_pairIPNS_11__hash_nodeINS_17__hash_value_typeIibEEPvEENS_26__hash_map_node_destructorINS_9allocatorIS5_EEEEE6secondB8ue170006Ev, symObjAddr: 0x3E9C, symBinAddr: 0x1000065FC, symSize: 0x28 }
  - { offsetInCU: 0xE5EA, offset: 0xE5EA, size: 0x8, addend: 0x0, symName: __ZNSt3__122__compressed_pair_elemINS_26__hash_map_node_destructorINS_9allocatorINS_11__hash_nodeINS_17__hash_value_typeIibEEPvEEEEEELi1ELb0EE5__getB8ue170006Ev, symObjAddr: 0x3EC4, symBinAddr: 0x100006624, symSize: 0x14 }
  - { offsetInCU: 0xE610, offset: 0xE610, size: 0x8, addend: 0x0, symName: __ZNSt3__19allocatorINS_11__hash_nodeINS_17__hash_value_typeIibEEPvEEE9constructB8ue170006IbJEEEvPT_DpOT0_, symObjAddr: 0x3ED8, symBinAddr: 0x100006638, symSize: 0x1C }
  - { offsetInCU: 0xE652, offset: 0xE652, size: 0x8, addend: 0x0, symName: __ZNKSt3__122__unordered_map_hasherIiNS_17__hash_value_typeIibEENS_4hashIiEENS_8equal_toIiEELb1EEclB8ue170006ERKS2_, symObjAddr: 0x3EF4, symBinAddr: 0x100006654, symSize: 0x40 }
  - { offsetInCU: 0xE687, offset: 0xE687, size: 0x8, addend: 0x0, symName: __ZNSt3__112__hash_tableINS_17__hash_value_typeIibEENS_22__unordered_map_hasherIiS2_NS_4hashIiEENS_8equal_toIiEELb1EEENS_21__unordered_map_equalIiS2_S7_S5_Lb1EEENS_9allocatorIS2_EEE28__node_insert_unique_prepareB8ue170006EmRS2_, symObjAddr: 0x3F34, symBinAddr: 0x100006694, symSize: 0x290 }
  - { offsetInCU: 0xE709, offset: 0xE709, size: 0x8, addend: 0x0, symName: __ZNSt3__112__hash_tableINS_17__hash_value_typeIibEENS_22__unordered_map_hasherIiS2_NS_4hashIiEENS_8equal_toIiEELb1EEENS_21__unordered_map_equalIiS2_S7_S5_Lb1EEENS_9allocatorIS2_EEE28__node_insert_unique_performB8ue170006EPNS_11__hash_nodeIS2_PvEE, symObjAddr: 0x41C4, symBinAddr: 0x100006924, symSize: 0x154 }
  - { offsetInCU: 0xE76D, offset: 0xE76D, size: 0x8, addend: 0x0, symName: __ZNSt3__116__hash_node_baseIPNS_11__hash_nodeINS_17__hash_value_typeIibEEPvEEE5__ptrB8ue170006Ev, symObjAddr: 0x4318, symBinAddr: 0x100006A78, symSize: 0x24 }
  - { offsetInCU: 0xE793, offset: 0xE793, size: 0x8, addend: 0x0, symName: __ZNSt3__14pairINS_15__hash_iteratorIPNS_11__hash_nodeINS_17__hash_value_typeIibEEPvEEEEbEC1B8ue170006ERKS8_RKb, symObjAddr: 0x433C, symBinAddr: 0x100006A9C, symSize: 0x3C }
  - { offsetInCU: 0xE7D9, offset: 0xE7D9, size: 0x8, addend: 0x0, symName: __ZNKSt3__121__unordered_map_equalIiNS_17__hash_value_typeIibEENS_8equal_toIiEENS_4hashIiEELb1EEclB8ue170006ERKS2_S9_, symObjAddr: 0x4378, symBinAddr: 0x100006AD8, symSize: 0x54 }
  - { offsetInCU: 0xE81D, offset: 0xE81D, size: 0x8, addend: 0x0, symName: __ZNSt3__112__hash_tableINS_17__hash_value_typeIibEENS_22__unordered_map_hasherIiS2_NS_4hashIiEENS_8equal_toIiEELb1EEENS_21__unordered_map_equalIiS2_S7_S5_Lb1EEENS_9allocatorIS2_EEE4sizeB8ue170006Ev, symObjAddr: 0x43CC, symBinAddr: 0x100006B2C, symSize: 0x28 }
  - { offsetInCU: 0xE843, offset: 0xE843, size: 0x8, addend: 0x0, symName: __ZNSt3__112__hash_tableINS_17__hash_value_typeIibEENS_22__unordered_map_hasherIiS2_NS_4hashIiEENS_8equal_toIiEELb1EEENS_21__unordered_map_equalIiS2_S7_S5_Lb1EEENS_9allocatorIS2_EEE15max_load_factorB8ue170006Ev, symObjAddr: 0x43F4, symBinAddr: 0x100006B54, symSize: 0x28 }
  - { offsetInCU: 0xE869, offset: 0xE869, size: 0x8, addend: 0x0, symName: __ZNSt3__112__hash_tableINS_17__hash_value_typeIibEENS_22__unordered_map_hasherIiS2_NS_4hashIiEENS_8equal_toIiEELb1EEENS_21__unordered_map_equalIiS2_S7_S5_Lb1EEENS_9allocatorIS2_EEE15__rehash_uniqueB8ue170006Em, symObjAddr: 0x441C, symBinAddr: 0x100006B7C, symSize: 0x2C }
  - { offsetInCU: 0xE89D, offset: 0xE89D, size: 0x8, addend: 0x0, symName: __Z4ceilB8ue170006f, symObjAddr: 0x44C4, symBinAddr: 0x100006C24, symSize: 0x18 }
  - { offsetInCU: 0xE8CC, offset: 0xE8CC, size: 0x8, addend: 0x0, symName: __ZNSt3__117__compressed_pairImNS_22__unordered_map_hasherIiNS_17__hash_value_typeIibEENS_4hashIiEENS_8equal_toIiEELb1EEEE5firstB8ue170006Ev, symObjAddr: 0x44DC, symBinAddr: 0x100006C3C, symSize: 0x24 }
  - { offsetInCU: 0xE8F2, offset: 0xE8F2, size: 0x8, addend: 0x0, symName: __ZNSt3__117__compressed_pairIfNS_21__unordered_map_equalIiNS_17__hash_value_typeIibEENS_8equal_toIiEENS_4hashIiEELb1EEEE5firstB8ue170006Ev, symObjAddr: 0x4500, symBinAddr: 0x100006C60, symSize: 0x24 }
  - { offsetInCU: 0xE918, offset: 0xE918, size: 0x8, addend: 0x0, symName: __ZNSt3__122__compressed_pair_elemIfLi0ELb0EE5__getB8ue170006Ev, symObjAddr: 0x4524, symBinAddr: 0x100006C84, symSize: 0x14 }
  - { offsetInCU: 0xE93E, offset: 0xE93E, size: 0x8, addend: 0x0, symName: __ZNSt3__112__hash_tableINS_17__hash_value_typeIibEENS_22__unordered_map_hasherIiS2_NS_4hashIiEENS_8equal_toIiEELb1EEENS_21__unordered_map_equalIiS2_S7_S5_Lb1EEENS_9allocatorIS2_EEE8__rehashILb1EEEvm, symObjAddr: 0x4538, symBinAddr: 0x100006C98, symSize: 0x1A8 }
  - { offsetInCU: 0xE98E, offset: 0xE98E, size: 0x8, addend: 0x0, symName: __ZNSt3__112__hash_tableINS_17__hash_value_typeIibEENS_22__unordered_map_hasherIiS2_NS_4hashIiEENS_8equal_toIiEELb1EEENS_21__unordered_map_equalIiS2_S7_S5_Lb1EEENS_9allocatorIS2_EEE11__do_rehashILb1EEEvm, symObjAddr: 0x46E0, symBinAddr: 0x100006E40, symSize: 0x288 }
  - { offsetInCU: 0xEA75, offset: 0xEA75, size: 0x8, addend: 0x0, symName: __ZNSt3__110unique_ptrIA_PNS_16__hash_node_baseIPNS_11__hash_nodeINS_17__hash_value_typeIibEEPvEEEENS_25__bucket_list_deallocatorINS_9allocatorIS9_EEEEE11get_deleterB8ue170006Ev, symObjAddr: 0x49D4, symBinAddr: 0x100007134, symSize: 0x24 }
  - { offsetInCU: 0xEA9B, offset: 0xEA9B, size: 0x8, addend: 0x0, symName: __ZNSt3__110unique_ptrIA_PNS_16__hash_node_baseIPNS_11__hash_nodeINS_17__hash_value_typeIibEEPvEEEENS_25__bucket_list_deallocatorINS_9allocatorIS9_EEEEE5resetB8ue170006IPS9_EENS_9enable_ifIXsr28_CheckArrayPointerConversionIT_EE5valueEvE4typeESJ_, symObjAddr: 0x49F8, symBinAddr: 0x100007158, symSize: 0x78 }
  - { offsetInCU: 0xEAE8, offset: 0xEAE8, size: 0x8, addend: 0x0, symName: __ZNSt3__116allocator_traitsINS_9allocatorIPNS_16__hash_node_baseIPNS_11__hash_nodeINS_17__hash_value_typeIibEEPvEEEEEEE8allocateB8ue170006ERSB_m, symObjAddr: 0x4A70, symBinAddr: 0x1000071D0, symSize: 0x2C }
  - { offsetInCU: 0xEB1B, offset: 0xEB1B, size: 0x8, addend: 0x0, symName: __ZNSt3__19allocatorIPNS_16__hash_node_baseIPNS_11__hash_nodeINS_17__hash_value_typeIibEEPvEEEEE8allocateB8ue170006Em, symObjAddr: 0x4A9C, symBinAddr: 0x1000071FC, symSize: 0x84 }
  - { offsetInCU: 0xEB59, offset: 0xEB59, size: 0x8, addend: 0x0, symName: __ZNSt3__116allocator_traitsINS_9allocatorIPNS_16__hash_node_baseIPNS_11__hash_nodeINS_17__hash_value_typeIibEEPvEEEEEEE8max_sizeB8ue170006ISB_vEEmRKSB_, symObjAddr: 0x4B20, symBinAddr: 0x100007280, symSize: 0x24 }
  - { offsetInCU: 0xEB87, offset: 0xEB87, size: 0x8, addend: 0x0, symName: __ZNKSt3__19allocatorIPNS_16__hash_node_baseIPNS_11__hash_nodeINS_17__hash_value_typeIibEEPvEEEEE8max_sizeB8ue170006Ev, symObjAddr: 0x4B44, symBinAddr: 0x1000072A4, symSize: 0x14 }
  - { offsetInCU: 0xEBB7, offset: 0xEBB7, size: 0x8, addend: 0x0, symName: __ZNKSt3__16__lessIvvEclB8ue170006ImmEEbRKT_RKT0_, symObjAddr: 0x4BC8, symBinAddr: 0x100007328, symSize: 0x34 }
  - { offsetInCU: 0xEC0B, offset: 0xEC0B, size: 0x8, addend: 0x0, symName: __ZNSt3__14pairINS_15__hash_iteratorIPNS_11__hash_nodeINS_17__hash_value_typeIibEEPvEEEEbEC2B8ue170006ERKS8_RKb, symObjAddr: 0x4BFC, symBinAddr: 0x10000735C, symSize: 0x38 }
  - { offsetInCU: 0xEC51, offset: 0xEC51, size: 0x8, addend: 0x0, symName: __ZNSt3__14pairINS_19__hash_map_iteratorINS_15__hash_iteratorIPNS_11__hash_nodeINS_17__hash_value_typeIibEEPvEEEEEEbEC2B8ue170006IS9_bEERKNS0_IT_T0_EE, symObjAddr: 0x4C34, symBinAddr: 0x100007394, symSize: 0x50 }
  - { offsetInCU: 0xEC9B, offset: 0xEC9B, size: 0x8, addend: 0x0, symName: __ZNSt3__117__compressed_pairIPNS_11__hash_nodeINS_17__hash_value_typeIibEEPvEENS_26__hash_map_node_destructorINS_9allocatorIS5_EEEEE5firstB8ue170006Ev, symObjAddr: 0x4C84, symBinAddr: 0x1000073E4, symSize: 0x24 }
  - { offsetInCU: 0xECC1, offset: 0xECC1, size: 0x8, addend: 0x0, symName: __ZNSt3__122__compressed_pair_elemIPNS_11__hash_nodeINS_17__hash_value_typeIibEEPvEELi0ELb0EE5__getB8ue170006Ev, symObjAddr: 0x4CA8, symBinAddr: 0x100007408, symSize: 0x14 }
  - { offsetInCU: 0xECE7, offset: 0xECE7, size: 0x8, addend: 0x0, symName: __ZNSt3__110unique_ptrINS_11__hash_nodeINS_17__hash_value_typeIibEEPvEENS_26__hash_map_node_destructorINS_9allocatorIS5_EEEEED2B8ue170006Ev, symObjAddr: 0x4CBC, symBinAddr: 0x10000741C, symSize: 0x30 }
  - { offsetInCU: 0xED11, offset: 0xED11, size: 0x8, addend: 0x0, symName: __ZNSt3__110unique_ptrINS_11__hash_nodeINS_17__hash_value_typeIibEEPvEENS_26__hash_map_node_destructorINS_9allocatorIS5_EEEEE5resetB8ue170006EPS5_, symObjAddr: 0x4CEC, symBinAddr: 0x10000744C, symSize: 0x78 }
  - { offsetInCU: 0xED55, offset: 0xED55, size: 0x8, addend: 0x0, symName: __ZNSt3__126__hash_map_node_destructorINS_9allocatorINS_11__hash_nodeINS_17__hash_value_typeIibEEPvEEEEEclB8ue170006EPS6_, symObjAddr: 0x4D64, symBinAddr: 0x1000074C4, symSize: 0xE4 }
  - { offsetInCU: 0xED8A, offset: 0xED8A, size: 0x8, addend: 0x0, symName: __ZNSt3__116allocator_traitsINS_9allocatorINS_11__hash_nodeINS_17__hash_value_typeIibEEPvEEEEE7destroyB8ue170006IbvvEEvRS7_PT_, symObjAddr: 0x4E48, symBinAddr: 0x1000075A8, symSize: 0x14 }
  - { offsetInCU: 0xEDC5, offset: 0xEDC5, size: 0x8, addend: 0x0, symName: __ZNSt3__116allocator_traitsINS_9allocatorINS_11__hash_nodeINS_17__hash_value_typeIibEEPvEEEEE7destroyB8ue170006IKivvEEvRS7_PT_, symObjAddr: 0x4E5C, symBinAddr: 0x1000075BC, symSize: 0x14 }
...
